target datalayout = "e-m:e-p270:32:32-p271:32:32-p272:64:64-i64:64-i128:128-f80:128-n8:16:32:64-S128"
target triple = "x86_64-pc-linux-gnu"

%"struct.Luau::CodeGen::X64::IrRegAllocX64" = type { ptr, ptr, ptr, i32, %"struct.std::array", %"struct.std::array.0", %"struct.std::array", %"struct.std::array.0", i8, %"class.std::bitset", i32, i32, %"class.std::vector" }
%"struct.std::array" = type { [16 x i8] }
%"struct.std::array.0" = type { [16 x i32] }
%"class.std::bitset" = type { %"struct.std::_Base_bitset" }
%"struct.std::_Base_bitset" = type { [4 x i64] }
%"class.std::vector" = type { %"struct.std::_Vector_base" }
%"struct.std::_Vector_base" = type { %"struct.std::_Vector_base<Luau::CodeGen::X64::IrSpillX64, std::allocator<Luau::CodeGen::X64::IrSpillX64>>::_Vector_impl" }
%"struct.std::_Vector_base<Luau::CodeGen::X64::IrSpillX64, std::allocator<Luau::CodeGen::X64::IrSpillX64>>::_Vector_impl" = type { %"struct.std::_Vector_base<Luau::CodeGen::X64::IrSpillX64, std::allocator<Luau::CodeGen::X64::IrSpillX64>>::_Vector_impl_data" }
%"struct.std::_Vector_base<Luau::CodeGen::X64::IrSpillX64, std::allocator<Luau::CodeGen::X64::IrSpillX64>>::_Vector_impl_data" = type { ptr, ptr, ptr }

; Function Attrs: mustprogress nounwind uwtable
define linkonce_odr dso_local noundef ptr @_ZNSt14__array_traitsIjLm16EE6_S_ptrERA16_Kj(ptr noundef nonnull align 4 dereferenceable(64) %0) #1 comdat align 2 {
  %2 = alloca ptr, align 8
  store ptr %0, ptr %2, align 8
  %3 = load ptr, ptr %2, align 8
  %4 = getelementptr inbounds [16 x i32], ptr %3, i64 0, i64 0
  ret ptr %4
}

; Function Attrs: mustprogress nounwind uwtable
define linkonce_odr dso_local noundef ptr @_ZNKSt5arrayIjLm16EE4dataEv(ptr noundef nonnull align 4 dereferenceable(64) %0) #1 comdat align 2 {
  %2 = alloca ptr, align 8
  store ptr %0, ptr %2, align 8
  %3 = load ptr, ptr %2, align 8
  %4 = getelementptr inbounds %"struct.std::array.0", ptr %3, i32 0, i32 0
  %5 = call noundef ptr @_ZNSt14__array_traitsIjLm16EE6_S_ptrERA16_Kj(ptr noundef nonnull align 4 dereferenceable(64) %4) #10
  ret ptr %5
}

; Function Attrs: mustprogress nounwind uwtable
define linkonce_odr dso_local noundef ptr @_ZNKSt5arrayIjLm16EE3endEv(ptr noundef nonnull align 4 dereferenceable(64) %0) #1 comdat align 2 {
  %2 = alloca ptr, align 8
  store ptr %0, ptr %2, align 8
  %3 = load ptr, ptr %2, align 8
  %4 = call noundef ptr @_ZNKSt5arrayIjLm16EE4dataEv(ptr noundef nonnull align 4 dereferenceable(64) %3) #10
  %5 = getelementptr inbounds i32, ptr %4, i64 16
  ret ptr %5
}

; Function Attrs: mustprogress nounwind uwtable
define linkonce_odr dso_local noundef ptr @_ZNKSt5arrayIjLm16EE5beginEv(ptr noundef nonnull align 4 dereferenceable(64) %0) #1 comdat align 2 {
  %2 = alloca ptr, align 8
  store ptr %0, ptr %2, align 8
  %3 = load ptr, ptr %2, align 8
  %4 = call noundef ptr @_ZNKSt5arrayIjLm16EE4dataEv(ptr noundef nonnull align 4 dereferenceable(64) %3) #10
  ret ptr %4
}

; Function Attrs: mustprogress uwtable
define dso_local noundef i32 @_ZNK4Luau7CodeGen3X6413IrRegAllocX6434findInstructionWithFurthestNextUseERKSt5arrayIjLm16EE(ptr noundef nonnull align 8 dereferenceable(256) %0, ptr noundef nonnull align 4 dereferenceable(64) %1) #0 align 2 {
  %3 = alloca ptr, align 8
  %4 = alloca ptr, align 8
  %5 = alloca i32, align 4
  %6 = alloca i32, align 4
  %7 = alloca ptr, align 8
  %8 = alloca ptr, align 8
  %9 = alloca ptr, align 8
  %10 = alloca i32, align 4
  %11 = alloca i32, align 4
  store ptr %0, ptr %3, align 8
  store ptr %1, ptr %4, align 8
  %12 = load ptr, ptr %3, align 8
  store i32 -1, ptr %5, align 4
  store i32 0, ptr %6, align 4
  %13 = load ptr, ptr %4, align 8
  store ptr %13, ptr %7, align 8
  %14 = load ptr, ptr %7, align 8
  %15 = call noundef ptr @_ZNKSt5arrayIjLm16EE5beginEv(ptr noundef nonnull align 4 dereferenceable(64) %14) #10
  store ptr %15, ptr %8, align 8
  %16 = load ptr, ptr %7, align 8
  %17 = call noundef ptr @_ZNKSt5arrayIjLm16EE3endEv(ptr noundef nonnull align 4 dereferenceable(64) %16) #10
  store ptr %17, ptr %9, align 8
  br label %18

18:                                               ; preds = %56, %2
  %19 = load ptr, ptr %8, align 8
  %20 = load ptr, ptr %9, align 8
  %21 = icmp ne ptr %19, %20
  br i1 %21, label %22, label %59

22:                                               ; preds = %18
  %23 = load ptr, ptr %8, align 8
  %24 = load i32, ptr %23, align 4
  store i32 %24, ptr %10, align 4
  %25 = load i32, ptr %10, align 4
  %26 = icmp eq i32 %25, -1
  br i1 %26, label %32, label %27

27:                                               ; preds = %22
  %28 = load i32, ptr %10, align 4
  %29 = getelementptr inbounds %"struct.Luau::CodeGen::X64::IrRegAllocX64", ptr %12, i32 0, i32 3
  %30 = load i32, ptr %29, align 8
  %31 = icmp eq i32 %28, %30
  br i1 %31, label %32, label %33

32:                                               ; preds = %27, %22
  br label %56

33:                                               ; preds = %27
  %34 = getelementptr inbounds %"struct.Luau::CodeGen::X64::IrRegAllocX64", ptr %12, i32 0, i32 1
  %35 = load ptr, ptr %34, align 8
  %36 = load i32, ptr %10, align 4
  %37 = getelementptr inbounds %"struct.Luau::CodeGen::X64::IrRegAllocX64", ptr %12, i32 0, i32 3
  %38 = load i32, ptr %37, align 8
  %39 = call noundef i32 @_ZN4Luau7CodeGen14getNextInstUseERNS0_10IrFunctionEjj(ptr noundef nonnull align 8 dereferenceable(616) %35, i32 noundef %36, i32 noundef %38)
  store i32 %39, ptr %11, align 4
  %40 = load i32, ptr %11, align 4
  %41 = getelementptr inbounds %"struct.Luau::CodeGen::X64::IrRegAllocX64", ptr %12, i32 0, i32 3
  %42 = load i32, ptr %41, align 8
  %43 = icmp eq i32 %40, %42
  br i1 %43, label %44, label %45

44:                                               ; preds = %33
  br label %56

45:                                               ; preds = %33
  %46 = load i32, ptr %5, align 4
  %47 = icmp eq i32 %46, -1
  br i1 %47, label %52, label %48

48:                                               ; preds = %45
  %49 = load i32, ptr %11, align 4
  %50 = load i32, ptr %6, align 4
  %51 = icmp ugt i32 %49, %50
  br i1 %51, label %52, label %55

52:                                               ; preds = %48, %45
  %53 = load i32, ptr %11, align 4
  store i32 %53, ptr %6, align 4
  %54 = load i32, ptr %10, align 4
  store i32 %54, ptr %5, align 4
  br label %55

55:                                               ; preds = %52, %48
  br label %56

56:                                               ; preds = %55, %44, %32
  %57 = load ptr, ptr %8, align 8
  %58 = getelementptr inbounds i32, ptr %57, i32 1
  store ptr %58, ptr %8, align 8
  br label %18

59:                                               ; preds = %18
  %60 = load i32, ptr %5, align 4
  ret i32 %60
}