; Function Attrs: mustprogress uwtable
define dso_local noundef i32 @_ZNK4Luau7CodeGen3X6413IrRegAllocX6434findInstructionWithFurthestNextUseERKSt5arrayIjLm16EE(ptr nocapture noundef nonnull readonly align 8 dereferenceable(256) %0, ptr nocapture noundef nonnull readonly align 4 dereferenceable(64) %1) local_unnamed_addr #1 align 2 {
  %3 = getelementptr inbounds i8, ptr %0, i64 24
  %4 = getelementptr inbounds i8, ptr %0, i64 8
  br label %5

5:                                                ; preds = %2, %19
  %.026 = phi i32 [ -1, %2 ], [ %.1, %19 ]
  %.01725 = phi i32 [ 0, %2 ], [ %.118, %19 ]
  %.019.idx24 = phi i64 [ 0, %2 ], [ %.019.add, %19 ]
  %.019.ptr = getelementptr inbounds i8, ptr %1, i64 %.019.idx24
  %6 = load i32, ptr %.019.ptr, align 4
  %7 = icmp eq i32 %6, -1
  br i1 %7, label %19, label %8

8:                                                ; preds = %5
  %9 = load i32, ptr %3, align 8
  %10 = icmp eq i32 %6, %9
  br i1 %10, label %19, label %11

11:                                               ; preds = %8
  %12 = load ptr, ptr %4, align 8
  %13 = tail call noundef i32 @_ZN4Luau7CodeGen14getNextInstUseERNS0_10IrFunctionEjj(ptr noundef nonnull align 8 dereferenceable(616) %12, i32 noundef %6, i32 noundef %9)
  %14 = load i32, ptr %3, align 8
  %15 = icmp eq i32 %13, %14
  br i1 %15, label %19, label %16

16:                                               ; preds = %11
  %17 = icmp eq i32 %.026, -1
  %18 = icmp ugt i32 %13, %.01725
  %or.cond = select i1 %17, i1 true, i1 %18
  %spec.select = select i1 %or.cond, i32 %13, i32 %.01725
  %spec.select23 = select i1 %or.cond, i32 %6, i32 %.026
  br label %19

19:                                               ; preds = %16, %11, %5, %8
  %.118 = phi i32 [ %.01725, %5 ], [ %.01725, %8 ], [ %.01725, %11 ], [ %spec.select, %16 ]
  %.1 = phi i32 [ %.026, %5 ], [ %.026, %8 ], [ %.026, %11 ], [ %spec.select23, %16 ]
  %.019.add = add nuw nsw i64 %.019.idx24, 4
  %.not = icmp eq i64 %.019.add, 64
  br i1 %.not, label %20, label %5

20:                                               ; preds = %19
  ret i32 %.1
}